(dp1
S''
(dp2
S''
F0
sS"You're"
p3
F0.0091743119266055051
sS'Hey,'
p4
F0.0091743119266055051
sS'Hotel'
p5
F0.0091743119266055051
sS'Nowowowow,'
p6
F0.0091743119266055051
sS"It's"
p7
F0.01834862385321101
sS'When'
p8
F0.0091743119266055051
sS'AaAaAaAaA,'
p9
F0.01834862385321101
sS'Daaaahhhh,'
p10
F0.0091743119266055051
sS'AaA,'
p11
F0.0091743119266055051
sS"'''"
p12
F0.0091743119266055051
sS'Daaah,'
p13
F0.01834862385321101
sS'AaaAAaaaaAaaa'
p14
F0.0091743119266055051
sS'You'
p15
F0.027522935779816515
sS"AaAaAah'm"
p16
F0.0091743119266055051
sS"I'm"
p17
F0.20183486238532111
sS"AAAaaaAAAaaa-I'm"
p18
F0.0091743119266055051
sS"Let's"
p19
F0.0091743119266055051
sS"'''I've"
p20
F0.0091743119266055051
sS'GrRrRraaauuughnck'
p21
F0.0091743119266055051
sS'Eggs'
p22
F0.0091743119266055051
sS'Who'
p23
F0.0091743119266055051
sS'Step'
p24
F0.0091743119266055051
sS'Here'
p25
F0.0091743119266055051
sS'DaAaHh'
p26
F0.0091743119266055051
sS'The'
p27
F0.0091743119266055051
sS'This'
p28
F0.01834862385321101
sS'Location,'
p29
F0.0091743119266055051
sS'DaAAahhh,'
p30
F0.0091743119266055051
sS'AaAaAaAaAaAaA'
p31
F0.055045871559633031
sS'DaAaAaA'
p32
F0.0091743119266055051
sS'Dahhh,'
p33
F0.0091743119266055051
sS'These'
p34
F0.0091743119266055051
sS'And'
p35
F0.0091743119266055051
sS'Pshoooo'
p36
F0.0091743119266055051
sS'Oh'
p37
F0.01834862385321101
sS'I'
F0.045871559633027525
sS'Okay,'
p38
F0.0091743119266055051
sS'Pucker'
p39
F0.0091743119266055051
sS'Piiiiiiiiiiiiiiiiiiiiie'
p40
F0.0091743119266055051
sS'AaAaAa'
p41
F0.01834862385321101
sS'Caramel'
p42
F0.0091743119266055051
sS'YaAaAaAh,'
p43
F0.0091743119266055051
sS'Alms'
p44
F0.01834862385321101
sS'Daahh,'
p45
F0.0091743119266055051
sS'AaAaAh'
p46
F0.0091743119266055051
sS'Climb'
p47
F0.0091743119266055051
sS'My'
p48
F0.03669724770642202
sS'Think'
p49
F0.0091743119266055051
sS"That's"
p50
F0.0091743119266055051
sS"I'll"
p51
F0.0091743119266055051
sS'DaaAAAAAaaa'
p52
F0.0091743119266055051
sS"Don't"
p53
F0.027522935779816515
sS'Uhdyeah,'
p54
F0.0091743119266055051
sS'Is'
p55
F0.0091743119266055051
sS"I've"
p56
F0.0091743119266055051
sS'AaAaAah'
p57
F0.0091743119266055051
sS'Sign'
p58
F0.0091743119266055051
sS'AaAaAaAaA'
p59
F0.0091743119266055051
sS'Well,'
p60
F0.0091743119266055051
sS'Hey'
p61
F0.0091743119266055051
sS'Daaaahhh,'
p62
F0.0091743119266055051
sS'Ennn-joy'
p63
F0.0091743119266055051
sS'Yes'
p64
F0.0091743119266055051
sS'Hi,'
p65
F0.0091743119266055051
sS'If'
p66
F0.0091743119266055051
ssS'forget'
p67
(dp68
S'your'
p69
F1
ssS'dollar'
p70
(dp71
S''
F1
ssS'captain'
p72
(dp73
S'of'
p74
F1
ssS'up,'
p75
(dp76
S'Dice'
p77
F1
ssS'punjab'
p78
(dp79
S'has'
p80
F1
ssS'suits'
p81
(dp82
S''
F1
ssS'to'
p83
(dp84
S'the'
p85
F0.40000000000000002
sS'you,'
p86
F0.20000000000000001
sS'hear'
p87
F0.20000000000000001
sS'thank'
p88
F0.20000000000000001
ssS'flowered'
p89
(dp90
S''
F1
ssS'friendly'
p91
(dp92
S'reminder'
p93
F1
ssS'sent'
p94
(dp95
S'me'
p96
F1
ssg36
(dp97
S''
F1
ssS'song'
p98
(dp99
S''
F0.33333333333333331
sS'of'
p100
F0.33333333333333331
sS'from'
p101
F0.33333333333333331
ssS'tasteball'
p102
(dp103
S''
F1
ssS"I'm"
p104
(dp105
S'a'
F0.25
sS'forever'
p106
F0.035714285714285712
sS'saving'
p107
F0.035714285714285712
sS'just'
p108
F0.10714285714285714
sS'pleasant'
p109
F0.035714285714285712
sS'as'
p110
F0.035714285714285712
sS'Homsar'
p111
F0.035714285714285712
sS'crying'
p112
F0.035714285714285712
sS'not'
p113
F0.035714285714285712
sS'the'
p114
F0.25
sS'feeling'
p115
F0.035714285714285712
sS'open'
p116
F0.035714285714285712
sS'your'
p117
F0.035714285714285712
sS'told'
p118
F0.035714285714285712
ssg53
(dp119
S'count'
p120
F0.33333333333333331
sS'look'
p121
F0.33333333333333331
sg67
F0.33333333333333331
ssS'try'
p122
(dp123
S'some'
p124
F1
ssg62
(dp125
S'this'
p126
F1
ssS'round'
p127
(dp128
S'one'
p129
F1
ssS'me,'
p130
(dp131
S"can't"
p132
F1
ssS'bacon'
p133
(dp134
S'at'
p135
F1
ssS'past'
p136
(dp137
S''
F1
ssS'bake'
p138
(dp139
S'sale'
p140
F1
ssS'what'
p141
(dp142
S"I'm"
p143
F0.5
sS'ees'
p144
F0.5
ssS'long-standing'
p145
(dp146
S'munch'
p147
F1
ssg118
(dp148
S''
F1
ssS'full'
p149
(dp150
S'of'
p151
F1
ssS'Jengaship'
p152
(dp153
S''
F1
ssS'naptime'
p154
(dp155
S''
F1
ssS'makeup'
p156
(dp157
S'from'
p158
F1
ssS'pancake'
p159
(dp160
S''
F1
ssS'sing'
p161
(dp162
S'a'
F1
ssg48
(dp163
S'cheese'
p164
F0.25
sg78
F0.25
sS'base'
p165
F0.25
sS"name's"
p166
F0.25
ssS'healthy'
p167
(dp168
S'piece'
p169
F1
ssS'Tuesday'
p170
(dp171
S'for'
p172
F1
ssg57
(dp173
S'leave'
p174
F1
ssS'jogging'
p175
(dp176
g81
F1
ssS"death's-door"
p177
(dp178
S'neighbor'
p179
F1
ssg54
(dp180
g141
F1
ssS'Wonder'
p181
(dp182
S'Mike'
p183
F1
ssg7
(dp184
S'Homsar'
p185
F0.5
sS'time'
p186
F0.5
ssg8
(dp187
S'can'
p188
F1
ssg43
(dp189
S"I'm"
p190
F1
ssS'brought'
p191
(dp192
S'my'
p193
F1
ssg6
(dp194
S'this'
p195
F1
ssg101
(dp196
g154
F0.33333333333333331
sS'the'
p197
F0.33333333333333331
sS'yesteryear'
p198
F0.33333333333333331
ssg21
(dp199
S'there,'
p200
F1
ssS'alligator'
p201
(dp202
S''
F1
ssS'hospital'
p203
(dp204
S''
F1
ssS'give'
p205
(dp206
S'me'
p207
F1
ssg24
(dp208
S'right'
p209
F1
ssS'pudgy'
p210
(dp211
S''
F1
ssS'today'
p212
(dp213
S''
F1
ssS'more'
p214
(dp215
S''
F1
ssg34
(dp216
S'Easter'
p217
F1
ssg38
(dp218
S'bye-dee-bye'
p219
F1
ssg39
(dp220
g75
F1
ssS'chocolate'
p221
(dp222
S'cake'
p223
F1
ssS'train'
p224
(dp225
S''
F1
ssg42
(dp226
S'corn'
p227
F1
ssS'president,'
p228
(dp229
S'please'
p230
F1
ssS'gladly'
p231
(dp232
S'pay'
p233
F1
ssg96
(dp234
S''
F0.20000000000000001
sS'to'
p235
F0.20000000000000001
sS'while'
p236
F0.20000000000000001
sS'up'
p237
F0.20000000000000001
sS'a'
F0.20000000000000001
ssg195
(dp238
S'is'
p239
F0.66666666666666663
sS'mustard'
p240
F0.33333333333333331
ssg200
(dp241
S'Rubbermaid,'
p242
F1
ssg188
(dp243
S'we'
p244
F0.5
sS'you'
p245
F0.5
ssS'Jengajam'
p246
(dp247
S''
F1
ssS'my'
p248
(dp249
g152
F0.125
sS'itch'
p250
F0.125
sS'favorite'
p251
F0.125
sg133
F0.125
sS'leeegs'
p252
F0.125
sS'touch'
p253
F0.125
sg246
F0.125
sS'best'
p254
F0.125
ssS'nearest'
p255
(dp256
S'pukevalanche'
p257
F1
ssS'patrol'
p258
(dp259
S''
F1
ssS'estate'
p260
(dp261
S''
F1
ssS'do'
p262
(dp263
S'what'
p264
F1
ssg58
(dp265
S'me'
p266
F1
ssS'Christmas'
p267
(dp268
g136
F1
ssS'class,'
p269
(dp270
S'Debra'
p271
F1
ssS'shanked'
p272
(dp273
S'my'
p274
F1
ssg23
(dp275
S'wants'
p276
F1
ssS'machine'
p277
(dp278
S'on'
p279
F1
ssS'sixties'
p280
(dp281
S''
F1
ssS'date'
p282
(dp283
S''
F1
ssS'mah'
p284
(dp285
S'get'
p286
F1
ssS'man'
p287
(dp288
S''
F1
ssS'a'
(dp289
S'real'
p290
F0.11764705882352941
sS'knock'
p291
F0.058823529411764705
sS'little'
p292
F0.058823529411764705
sS'pretty'
p293
F0.058823529411764705
sg98
F0.11764705882352941
sS'touchy'
p294
F0.058823529411764705
sS'Chipwich'
p295
F0.058823529411764705
sS'crudely'
p296
F0.058823529411764705
sg167
F0.058823529411764705
sS'silly'
p297
F0.058823529411764705
sg145
F0.058823529411764705
sS'trendy'
p298
F0.058823529411764705
sS'lifetime'
p299
F0.058823529411764705
sS'treat,'
p300
F0.058823529411764705
sg91
F0.058823529411764705
ssS'Captain'
p301
(dp302
S'Caveman'
p303
F1
ssS'light'
p304
(dp305
S'in'
p306
F1
ssS'upholstered'
p307
(dp308
S'as'
p309
F1
ssS"that's"
p310
(dp311
S'a'
F1
ssS'no,'
p312
(dp313
S'I'
F1
ssS'breaking'
p314
(dp315
S'up'
p316
F1
ssS'interpretation'
p317
(dp318
S''
F1
ssS'sweet,'
p319
(dp320
S'and'
p321
F1
ssS'still'
p322
(dp323
S"can't"
p324
F1
ssg18
(dp325
S'just'
p326
F1
ssS'rhinoceros'
p327
(dp328
S'around'
p329
F1
ssg88
(dp330
S'you'
p331
F1
ssg25
(dp332
S'comes'
p333
F1
ssS'better'
p334
(dp335
S'now,'
p336
F1
ssS'Jeffersons'
p337
(dp338
S''
F1
ssS'soccer'
p339
(dp340
g269
F1
ssS'it,'
p341
(dp342
S'Strong'
p343
F0.33333333333333331
sS'monster'
p344
F0.33333333333333331
sg287
F0.33333333333333331
ssS'cupcake'
p345
(dp346
S''
F1
ssg41
(dp347
S''
F1
ssg63
(dp348
S''
F1
ssS'foot'
p349
(dp350
g89
F1
ssg46
(dp351
S''
F1
ssS'now'
p352
(dp353
S''
F1
ssS'mystery'
p354
(dp355
S''
F1
ssS'thrill'
p356
(dp357
S'of'
p358
F1
ssg296
(dp359
S'drawn'
p360
F1
ssg65
(dp361
g181
F1
ssS'side'
p362
(dp363
S'yard'
p364
F1
ssg303
(dp365
S'of'
p366
F1
ssg295
(dp367
S''
F1
ssg271
(dp368
S''
F1
ssg14
(dp369
S''
F1
ssS'price-tag'
p370
(dp371
S''
F1
ssS'girl'
p372
(dp373
S''
F1
ssS'patch'
p374
(dp375
S''
F1
ssg174
(dp376
S'my'
p377
F1
ssS'trooper'
p378
(dp379
S''
F1
ssS'I'
(dp380
g262
F0.083333333333333329
sS'blew'
p381
F0.083333333333333329
sS'just'
p382
F0.083333333333333329
sS'wanna'
p383
F0.083333333333333329
sS'gotta'
p384
F0.083333333333333329
sS'won'
p385
F0.083333333333333329
sS'lose'
p386
F0.083333333333333329
sg322
F0.083333333333333329
sS'was'
p387
F0.16666666666666666
sS'think'
p388
F0.083333333333333329
sS'left'
p389
F0.083333333333333329
ssS'paradise'
p390
(dp391
S''
F1
ssS'got'
p392
(dp393
S'one'
p394
F1
ssg32
(dp395
S''
F1
ssS'[[Marzipan|Marzypa-yun]]'
p396
(dp397
S''
F1
ssg344
(dp398
S'may-an'
p399
F1
ssg28
(dp400
S'dinner'
p401
F0.5
sS'get-up'
p402
F0.5
ssS'leftovers'
p403
(dp404
S''
F1
ssg109
(dp405
S''
F1
ssg165
(dp406
S'boards'
p407
F1
ssg47
(dp408
S'aboard'
p409
F1
ssg364
(dp410
S''
F1
ssS'times'
p411
(dp412
g214
F1
ssg409
(dp413
S''
F1
ssg388
(dp414
S'this'
p415
F1
ssS'Millions,'
p416
(dp417
S'and'
p418
F1
ssg164
(dp419
S'is'
p420
F1
ssg5
(dp421
S'coupons'
p422
F1
ssg107
(dp423
S'the'
p424
F1
ssS'feel'
p425
(dp426
g248
F1
ssg394
(dp427
S''
F0.5
sS'big'
p428
F0.5
ssg116
(dp429
S'for'
p430
F1
ssS'little'
p431
(dp432
g304
F0.5
sS'bumblebee'
p433
F0.5
ssS'top'
p434
(dp435
g70
F1
ssS'too'
p436
(dp437
S'tight'
p438
F1
ssS'murder'
p439
(dp440
g354
F1
ssS'mostly'
p441
(dp442
S''
F1
ssS'that'
p443
(dp444
g327
F0.5
sS"it's"
p445
F0.5
ssg242
(dp446
S'can'
p447
F1
ssS'flowers'
p448
(dp449
S'you'
p450
F1
ssS'Powerball'
p451
(dp452
S''
F1
ssg399
(dp453
S''
F1
ssS'gotta'
p454
(dp455
S'get'
p456
F1
ssS'tree'
p457
(dp458
S''
F1
ssg297
(dp459
g431
F1
ssg198
(dp460
S''
F1
ssg418
(dp461
S"I'll"
p462
F0.5
sS"I'm"
p463
F0.5
ssg9
(dp464
g122
F0.5
sS'nice'
p465
F0.5
ssS'lie'
p466
(dp467
S'to'
p468
F1
ssg19
(dp469
g161
F1
ssS'also'
p470
(dp471
S'with'
p472
F1
ssS'take'
p473
(dp474
S'the'
p475
F1
ssg300
(dp476
S'make'
p477
F1
ssS'gravy'
p478
(dp479
g224
F1
ssS'sure'
p480
(dp481
g443
F1
ssS'eggs'
p482
(dp483
g457
F1
ssS'location,'
p484
(dp485
S'location'
p486
F1
ssg185
(dp487
S''
F1
ssg27
(dp488
g72
F1
ssg106
(dp489
S'your'
p490
F1
ssg52
(dp491
S''
F1
ssg294
(dp492
S'feely-holic'
p493
F1
ssg140
(dp494
S''
F1
ssg16
(dp495
S'the'
p496
F1
ssS'consummate'
p497
(dp498
S''
F1
ssg389
(dp499
S'my'
p500
F1
ssS'fifty'
p501
(dp502
g411
F1
ssS'tree,'
p503
(dp504
g482
F1
ssS'chicken'
p505
(dp506
S'sticks'
p507
F1
ssS'redirect'
p508
(dp509
S'me'
p510
F1
ssS'pause'
p511
(dp512
g441
F1
ssS'Tubbs'
p513
(dp514
S''
F1
ssS'try,'
p515
(dp516
g201
F1
ssg402
(dp517
S'is'
p518
F1
ssg293
(dp519
g370
F1
ssg343
(dp520
S'Bayaad'
p521
F1
ssS'local'
p522
(dp523
S'Leroy'
p524
F1
ssg120
(dp525
S'on'
p526
F1
ssg456
(dp527
S'down'
p528
F0.25
sS'yours,'
p529
F0.25
sg497
F0.25
sS'mine'
p530
F0.25
ssg360
(dp531
g345
F1
ssS'calling'
p532
(dp533
g83
F1
ssS'bag'
p534
(dp535
S''
F1
ssg252
(dp536
S''
F1
ssS'eeeat'
p537
(dp538
S'iiiiiit'
p539
F1
ssg381
(dp540
S'it,'
p541
F1
ssg40
(dp542
S''
F1
ssS'see'
p543
(dp544
S''
F1
ssS'are'
p545
(dp546
g149
F0.5
sS'getting'
p547
F0.5
ssS'best'
p548
(dp549
g349
F0.5
sS'for'
p550
F0.5
ssS'tapesicle'
p551
(dp552
S''
F1
ssg230
(dp553
S''
F1
ssS'state'
p554
(dp555
g378
F1
ssg385
(dp556
S'the'
p557
F1
ssS'yogurt'
p558
(dp559
g258
F1
ssg166
(dp560
g416
F1
ssS'pants'
p561
(dp562
g545
F1
ssg244
(dp563
S'start'
p564
F1
ssg219
(dp565
S''
F1
ssg33
(dp566
S'I'
F1
ssS'thanks,'
p567
(dp568
S'officer'
p569
F1
ssg26
(dp570
S"I'll"
p571
F1
ssg422
(dp572
S'for'
p573
F1
ssg115
(dp574
S'much'
p575
F1
ssS'last'
p576
(dp577
S''
F0.5
sS'bus'
p578
F0.5
ssS'joke'
p579
(dp580
S'about'
p581
F1
ssg64
(dp582
S'it'
p583
F1
ssg324
(dp584
g425
F0.5
sS'you'
p585
F0.5
ssg257
(dp586
S''
F1
ssg61
(dp587
S'Reggie'
p588
F1
ssg336
(dp589
S'but'
p590
F1
ssS'Sure'
p591
(dp592
S'beats'
p593
F1
ssg56
(dp594
g392
F1
ssg445
(dp595
g319
F1
ssg433
(dp596
S''
F1
ssS'cent'
p597
(dp598
S''
F1
ssg11
(dp599
S'get'
p600
F1
ssg575
(dp601
g334
F1
ssg588
(dp602
S''
F1
ssg486
(dp603
S''
F1
ssg276
(dp604
S'to'
p605
F1
ssS'graveyard'
p606
(dp607
S'train'
p608
F1
ssg530
(dp609
S''
F1
ssg50
(dp610
S'a'
F1
ssg35
(dp611
g470
F1
ssg121
(dp612
g352
F1
ssg110
(dp613
g307
F0.5
sS'I'
F0.5
ssg236
(dp614
S'I'
F1
ssg77
(dp615
S'Man'
p616
F1
ssg239
(dp617
S'just'
p618
F0.16666666666666666
sg434
F0.16666666666666666
sS'50'
p619
F0.16666666666666666
sg284
F0.16666666666666666
sS'the'
p620
F0.16666666666666666
sS'my'
p621
F0.16666666666666666
ssS'it'
p622
(dp623
S'does'
p624
F0.5
sg501
F0.5
ssS'in'
p625
(dp626
S'the'
p627
F0.66666666666666663
sS'time'
p628
F0.33333333333333331
ssg15
(dp629
S'bring'
p630
F0.33333333333333331
sg454
F0.33333333333333331
sg272
F0.33333333333333331
ssg217
(dp631
g561
F1
ssg20
(dp632
g191
F1
ssg233
(dp633
S'you'
p634
F1
ssg477
(dp635
g480
F1
ssS'party'
p636
(dp637
S'is'
p638
F1
ssg93
(dp639
S''
F1
ssg630
(dp640
S'the'
p641
F1
ssS'hello,'
p642
(dp643
g396
F0.5
sg221
F0.5
ssg250
(dp644
g277
F1
ssg524
(dp645
S''
F1
ssg147
(dp646
g282
F1
ssg44
(dp647
S'for'
p648
F1
ssg55
(dp649
S'that'
p650
F1
ssg333
(dp651
S'the'
p652
F1
ssS'the'
p653
(dp654
g255
F0.034482758620689655
sS'son'
p655
F0.034482758620689655
sS'dip,'
p656
F0.034482758620689655
sS'human'
p657
F0.034482758620689655
sS'buttersilk'
p658
F0.034482758620689655
sg138
F0.034482758620689655
sg548
F0.034482758620689655
sS'long'
p659
F0.034482758620689655
sg203
F0.034482758620689655
sS'tennis'
p660
F0.034482758620689655
sg210
F0.068965517241379309
sg280
F0.034482758620689655
sg337
F0.034482758620689655
sg558
F0.034482758620689655
sg522
F0.034482758620689655
sg478
F0.034482758620689655
sg439
F0.034482758620689655
sg606
F0.034482758620689655
sg403
F0.034482758620689655
sg448
F0.034482758620689655
sS'ghost'
p661
F0.034482758620689655
sg451
F0.034482758620689655
sS'last'
p662
F0.034482758620689655
sg356
F0.034482758620689655
sS'inside'
p663
F0.034482758620689655
sS'original'
p664
F0.034482758620689655
sg301
F0.034482758620689655
sg362
F0.034482758620689655
ssg66
(dp665
S'you'
p666
F1
ssg3
(dp667
S'a'
F1
ssS'just'
p668
(dp669
S'a'
F0.2857142857142857
sS'like'
p670
F0.14285714285714285
sS'lost'
p671
F0.14285714285714285
sg130
F0.14285714285714285
sg532
F0.14285714285714285
sS'in'
p672
F0.14285714285714285
ssg539
(dp673
S''
F1
ssg657
(dp674
S'wedgie'
p675
F1
ssg253
(dp676
S''
F1
ssg22
(dp677
g503
F1
ssS"ladies'"
p678
(dp679
S'man'
p680
F1
ssg30
(dp681
g642
F1
ssg112
(dp682
S'on'
p683
F1
ssg80
(dp684
S'a'
F1
ssg290
(dp685
S'popular'
p686
F0.33333333333333331
sg554
F0.33333333333333331
sg260
F0.33333333333333331
ssg329
(dp687
S''
F1
ssg37
(dp688
g312
F0.5
sS'no'
p689
F0.5
ssg428
(dp690
g127
F1
ssS'mow'
p691
(dp692
S'the'
p693
F1
ssS'gonna'
p694
(dp695
g466
F1
ssg291
(dp696
S'knock'
p697
F0.5
sg579
F0.5
ssg670
(dp698
g390
F1
ssg671
(dp699
S'my'
p700
F1
ssg619
(dp701
g597
F1
ssg144
(dp702
g341
F1
ssg59
(dp703
S''
F1
ssg569
(dp704
S''
F1
ssg386
(dp705
S'my'
p706
F1
ssg686
(dp707
S'song'
p708
F1
ssg616
(dp709
S''
F1
ssg4
(dp710
g513
F1
ssg209
(dp711
S'up'
p712
F1
ssg124
(dp713
S'candy'
p714
F0.5
sS'caked-on'
p715
F0.5
ssS'back'
p716
(dp717
S'from'
p718
F1
ssg715
(dp719
g156
F1
ssg714
(dp720
g212
F1
ssg298
(dp721
S'tote'
p722
F1
ssg183
(dp723
S''
F1
ssg722
(dp724
g534
F1
ssg624
(dp725
S''
F1
ssS'be'
p726
(dp727
S''
F1
ssg227
(dp728
S'for'
p729
F1
ssS'Pennzoil'
p730
(dp731
S''
F1
ssg45
(dp732
g104
F1
ssg49
(dp733
S'I'
F1
ssg683
(dp734
S'the'
p735
F0.33333333333333331
sg511
F0.33333333333333331
sS'it,'
p736
F0.33333333333333331
ssg581
(dp737
g175
F1
ssg407
(dp738
S'are'
p739
F1
ssg547
(dp740
S'way'
p741
F1
ssg521
(dp742
S''
F1
ssS'of'
p743
(dp744
S'a'
F0.22222222222222221
sS'real'
p745
F0.1111111111111111
sg622
F0.1111111111111111
sg505
F0.1111111111111111
sg730
F0.1111111111111111
sS'the'
p746
F0.22222222222222221
sg267
F0.1111111111111111
ssg251
(dp747
S''
F1
ssg401
(dp748
g636
F0.5
sS'again'
p749
F0.5
ssg179
(dp750
S''
F1
ssg675
(dp751
S''
F1
ssg383
(dp752
g726
F1
ssg655
(dp753
S'of'
p754
F1
ssg528
(dp755
S''
F1
ssg12
(dp756
g591
F1
ssg656
(dp757
S"I'll"
p758
F1
ssg490
(dp759
g372
F0.33333333333333331
sg551
F0.33333333333333331
sg177
F0.33333333333333331
ssg660
(dp760
g374
F1
ssg659
(dp761
S'way'
p762
F1
ssg564
(dp763
S'the'
p764
F1
ssg29
(dp765
g484
F1
ssg741
(dp766
g436
F0.5
sg716
F0.5
ssg387
(dp767
g668
F0.5
sg625
F0.5
ssg86
(dp768
g310
F1
ssg578
(dp769
S'to'
p770
F1
ssg590
(dp771
S'I'
F1
ssg87
(dp772
S'of'
p773
F1
ssg10
(dp774
S"I'm"
p775
F1
ssg13
(dp776
S"I'm"
p777
F0.5
sS'no'
p778
F0.5
ssS'with'
p779
(dp780
S'me'
p781
F0.5
sS'you'
p782
F0.5
ssg571
(dp783
g231
F0.25
sg691
F0.25
sg473
F0.25
sg537
F0.25
ssg663
(dp784
S''
F1
ssg316
(dp785
S''
F0.33333333333333331
sg779
F0.33333333333333331
sS'for'
p786
F0.33333333333333331
ssg223
(dp787
S''
F1
ssg169
(dp788
S'of'
p789
F1
ssg507
(dp790
S''
F1
ssg593
(dp791
g314
F1
ssg135
(dp792
S'the'
p793
F1
ssg658
(dp794
g159
F1
ssg299
(dp795
S''
F1
ssg749
(dp796
S''
F1
ssg778
(dp797
S''
F0.5
sg567
F0.5
ssg113
(dp798
g694
F1
ssg438
(dp799
S''
F1
ssg31
(dp800
S''
F1
ssg331
(dp801
g508
F0.14285714285714285
sS''
F0.14285714285714285
sS'for'
p802
F0.14285714285714285
sg205
F0.14285714285714285
sg170
F0.14285714285714285
sg543
F0.14285714285714285
sg94
F0.14285714285714285
ssg465
(dp803
g515
F1
ssg493
(dp804
S''
F1
ssg529
(dp805
S'I'
F1
ssg240
(dp806
S'is'
p807
F1
ssg661
(dp808
g743
F1
ssg802
(dp809
g317
F0.090909090909090912
sS'some'
p810
F0.090909090909090912
sS'dinner'
p811
F0.090909090909090912
sg228
F0.090909090909090912
sg102
F0.090909090909090912
sg576
F0.090909090909090912
sg653
F0.36363636363636365
sg339
F0.090909090909090912
ssg60
(dp812
S'hello,'
p813
F1
ssg628
(dp814
S'for'
p815
F1
ssg664
(dp816
g678
F1
ss.