(dp1
S''
(dp2
S''
F0
sS"You're"
p3
F0.0090090090090090089
sS'Hey,'
p4
F0.018018018018018018
sS'Who'
p5
F0.0090090090090090089
sS'Grape'
p6
F0.0090090090090090089
sS'Thank'
p7
F0.027027027027027029
sS'Would'
p8
F0.018018018018018018
sS'No'
p9
F0.018018018018018018
sS'There'
p10
F0.0090090090090090089
sS'Alonzo'
p11
F0.0090090090090090089
sS'How'
p12
F0.0090090090090090089
sS'Why,'
p13
F0.0090090090090090089
sS'Squad'
p14
F0.0090090090090090089
sS'Low'
p15
F0.0090090090090090089
sS'Lifty'
p16
F0.0090090090090090089
sS'Sorry'
p17
F0.0090090090090090089
sS'You'
p18
F0.036036036036036036
sS'Hello,'
p19
F0.0090090090090090089
sS'Carrageenan,'
p20
F0.0090090090090090089
sS'Oh,'
p21
F0.045045045045045043
sS'We'
p22
F0.0090090090090090089
sS'Good'
p23
F0.0090090090090090089
sS'Okay'
p24
F0.018018018018018018
sS'Cutterback'
p25
F0.0090090090090090089
sS"I've"
p26
F0.0090090090090090089
sS'Where'
p27
F0.018018018018018018
sS'Exprecially'
p28
F0.0090090090090090089
sS'Say'
p29
F0.0090090090090090089
sS'But'
p30
F0.0090090090090090089
sS'particles'
p31
F0.0090090090090090089
sS'This'
p32
F0.018018018018018018
sS'Hi'
p33
F0.0090090090090090089
sS'Wake'
p34
F0.0090090090090090089
sS'babies'
p35
F0.0090090090090090089
sS'Senorial'
p36
F0.0090090090090090089
sS'Let'
p37
F0.0090090090090090089
sS'America'
p38
F0.0090090090090090089
sS'Come'
p39
F0.018018018018018018
sS'Those'
p40
F0.018018018018018018
sS'Are'
p41
F0.0090090090090090089
sS'Thas'
p42
F0.0090090090090090089
sS"We'll"
p43
F0.0090090090090090089
sS'Well,'
p44
F0.0090090090090090089
sS'Look'
p45
F0.0090090090090090089
sS'Oh'
p46
F0.027027027027027029
sS'I'
F0.072072072072072071
sS'Many'
p47
F0.0090090090090090089
sS'Could'
p48
F0.0090090090090090089
sS'Hello-quialism'
p49
F0.0090090090090090089
sS'banked'
p50
F0.0090090090090090089
sS'So'
p51
F0.0090090090090090089
sS'Can'
p52
F0.018018018018018018
sS'Act'
p53
F0.0090090090090090089
sS"I'm"
p54
F0.036036036036036036
sS'My'
p55
F0.0090090090090090089
sS'Panctice'
p56
F0.0090090090090090089
sS"That's"
p57
F0.0090090090090090089
sS'No,'
p58
F0.027027027027027029
sS'Soggy,'
p59
F0.0090090090090090089
sS'Now'
p60
F0.0090090090090090089
sS'Mostly'
p61
F0.0090090090090090089
sS'Dump'
p62
F0.0090090090090090089
sS"Don't"
p63
F0.018018018018018018
sS'Is'
p64
F0.018018018018018018
sS'It'
p65
F0.018018018018018018
sS'One'
p66
F0.0090090090090090089
sS'Bring'
p67
F0.0090090090090090089
sS'Ex-obably'
p68
F0.0090090090090090089
sS"Won't"
p69
F0.0090090090090090089
sS'Forty-twone'
p70
F0.0090090090090090089
sS'soda'
p71
F0.0090090090090090089
sS'Go'
p72
F0.0090090090090090089
sS'Home'
p73
F0.0090090090090090089
sS'Here'
p74
F0.0090090090090090089
sS'Check'
p75
F0.0090090090090090089
sS'If'
p76
F0.018018018018018018
ssS'all'
p77
(dp78
S''
F0.20000000000000001
sS'went'
p79
F0.20000000000000001
sS'good'
p80
F0.20000000000000001
sS'my'
p81
F0.20000000000000001
sS'grold'
p82
F0.20000000000000001
ssS'four'
p83
(dp84
S'seconds'
p85
F1
ssS'go'
p86
(dp87
S'to'
p88
F0.33333333333333331
sS'you'
p89
F0.33333333333333331
sS'for'
p90
F0.33333333333333331
ssS'settlement'
p91
(dp92
S'now'
p93
F1
ssS'Mourning'
p94
(dp95
S'to'
p96
F1
ssS'to'
p97
(dp98
S'me'
p99
F0.0625
sS'be'
p100
F0.0625
sS'you,'
p101
F0.0625
sS'look'
p102
F0.0625
sS''
F0.0625
sS'my'
p103
F0.0625
sS'bother'
p104
F0.0625
sS'coincide'
p105
F0.0625
sS'stand'
p106
F0.0625
sS'Chick-fil-A'
p107
F0.0625
sS'the'
p108
F0.1875
sS'miss'
p109
F0.0625
sS'fetch'
p110
F0.0625
sS'talk'
p111
F0.0625
ssg34
(dp112
S'up'
p113
F1
ssg60
(dp114
S'I'
F1
ssS'Day'
p115
(dp116
S'savings'
p117
F0.5
sS'is'
p118
F0.5
ssS'very'
p119
(dp120
S'sorry,'
p121
F1
ssS'vera'
p122
(dp123
S'low'
p124
F1
ssS'every'
p125
(dp126
S'welcome,'
p127
F1
ssg54
(dp128
g119
F0.25
sS'Senor'
p129
F0.25
sS'sorry,'
p130
F0.5
ssg27
(dp131
S'is'
p132
F1
ssS'minute'
p133
(dp134
g86
F1
ssg58
(dp135
S'I'
F0.33333333333333331
sS'this'
p136
F0.33333333333333331
sS'the'
p137
F0.33333333333333331
ssg63
(dp138
S'let'
p139
F0.5
sS'bogart'
p140
F0.5
ssS"linin'"
p141
(dp142
S'up'
p143
F1
ssS'gum'
p144
(dp145
S''
F1
ssg72
(dp146
S'out'
p147
F1
ssS'might,'
p148
(dp149
S'Pez'
p150
F1
ssS'me,'
p151
(dp152
S'gather'
p153
F1
ssS'sign'
p154
(dp155
S'right'
p156
F1
ssg13
(dp157
S'hello,'
p158
F1
ssS'pass'
p159
(dp160
S''
F1
ssS'what'
p161
(dp162
S'I'
F1
ssS'burgwich'
p163
(dp164
S''
F1
ssg38
(dp165
S''
F1
ssS"dan't"
p166
(dp167
S'know'
p168
F1
ssS'leg'
p169
(dp170
S'up'
p171
F1
ssS'Senorial'
p172
(dp173
g115
F1
ssS'prescribe'
p174
(dp175
S'marriages'
p176
F1
ssS'here'
p177
(dp178
S'on'
p179
F0.33333333333333331
sS'forever'
p180
F0.33333333333333331
sS'with'
p181
F0.33333333333333331
ssg139
(dp182
S'another'
p183
F1
ssS'Ms'
p184
(dp185
S''
F1
ssS'recyclables,'
p186
(dp187
S'Angela'
p188
F1
ssS'along'
p189
(dp190
S'down'
p191
F1
ssg55
(dp192
S'left'
p193
F1
ssS'kids'
p194
(dp195
S'are'
p196
F1
ssS'tapes'
p197
(dp198
S''
F1
ssS'Trela'
p199
(dp200
S''
F1
ssS'pawnder'
p201
(dp202
S'my'
p203
F1
ssS'Jennifer'
p204
(dp205
S''
F1
ssS'NOT'
p206
(dp207
S'want'
p208
F1
ssg73
(dp209
S'Lawn,'
p210
F1
ssg23
(dp211
S'efening,'
p212
F1
ssg176
(dp213
S'in'
p214
F1
ssg212
(dp215
S'Bontilda'
p216
F1
ssS'mower'
p217
(dp218
S'turned'
p219
F1
ssS'would'
p220
(dp221
S'you'
p222
F1
ssS'Savings",'
p223
(dp224
g184
F1
ssS'call'
p225
(dp226
S''
F1
ssS'tell'
p227
(dp228
S'no'
p229
F1
ssg40
(dp230
S'like'
p231
F0.5
sS'were'
p232
F0.5
ssS'more'
p233
(dp234
S'than'
p235
F1
ssS'it'
p236
(dp237
S''
F0.33333333333333331
sS'for'
p238
F0.66666666666666663
ssg51
(dp239
S'come'
p240
F1
ssS'Fernandez'
p241
(dp242
S''
F1
ssS'combolations,'
p243
(dp244
S'Elizagerth'
p245
F1
ssS'me'
p246
(dp247
S''
F0.1111111111111111
sS'and'
p248
F0.1111111111111111
sS'buy'
p249
F0.22222222222222221
sS'for'
p250
F0.1111111111111111
sS'to'
p251
F0.22222222222222221
sS'lunch'
p252
F0.1111111111111111
sS'a'
F0.1111111111111111
ssS'this'
p253
(dp254
S'a'
F0.16666666666666666
sS'little'
p255
F0.16666666666666666
sS'steak'
p256
F0.16666666666666666
sS'where'
p257
F0.16666666666666666
sS'can'
p258
F0.33333333333333331
ssS'pidgeon'
p259
(dp260
S''
F1
ssS'can'
p261
(dp262
S'help'
p263
F0.14285714285714285
sS'I'
F0.14285714285714285
sS'of'
p264
F0.2857142857142857
sS'stand'
p265
F0.14285714285714285
sS'legally'
p266
F0.14285714285714285
sS'you'
p267
F0.14285714285714285
ssg81
(dp268
S''
F0.1111111111111111
sS'old'
p269
F0.1111111111111111
sS'Toyota'
p270
F0.1111111111111111
sS'fiftee-nute'
p271
F0.1111111111111111
sS'lunch'
p272
F0.1111111111111111
sS'grabness'
p273
F0.1111111111111111
sS'tacklebox'
p274
F0.1111111111111111
sS'prong'
p275
F0.1111111111111111
sS'comprooter,'
p276
F0.1111111111111111
ssg110
(dp277
S'the'
p278
F1
ssS'nearest'
p279
(dp280
S'bus'
p281
F1
ssS'pony'
p282
(dp283
S''
F1
ssg208
(dp284
S'to'
p285
F1
ssg210
(dp286
S'Escrow,'
p287
F1
ssg82
(dp288
S'up'
p289
F1
ssg5
(dp290
S'are'
p291
F1
ssS'hot'
p292
(dp293
S'dogs'
p294
F1
ssS'line,'
p295
(dp296
S'the'
p297
F1
ssS'Cardgage'
p298
(dp299
S'Mort-gage'
p300
F0.5
sS'for'
p301
F0.5
ssS'dotty'
p302
(dp303
g295
F1
ssg59
(dp304
S'Junior'
p305
F1
ssS'Intregway'
p306
(dp307
S''
F1
ssS'date'
p308
(dp309
S''
F1
ssS'guys'
p310
(dp311
S''
F1
ssS'a'
(dp312
S'cheese'
p313
F0.090909090909090912
sS'land'
p314
F0.090909090909090912
sg282
F0.090909090909090912
sg169
F0.090909090909090912
sS'Decemberween'
p315
F0.090909090909090912
sS'frank'
p316
F0.090909090909090912
sS'free'
p317
F0.090909090909090912
sS'slice'
p318
F0.090909090909090912
sS'pretty'
p319
F0.090909090909090912
sg159
F0.090909090909090912
sS'nice'
p320
F0.090909090909090912
ssS'lines'
p321
(dp322
S'to'
p323
F1
ssg66
(dp324
S"o'"
p325
F1
ssS'&mdash;'
p326
(dp327
S'you'
p328
F1
ssS'"Tremendous'
p329
(dp330
g223
F1
ssg111
(dp331
S'to'
p332
F1
ssg216
(dp333
S''
F1
ssS'help'
p334
(dp335
S'me'
p336
F0.40000000000000002
sS'you'
p337
F0.20000000000000001
sS'an'
p338
F0.40000000000000002
ssS"don't"
p339
(dp340
S'see'
p341
F1
ssS'Chi'
p342
(dp343
S'Minh'
p344
F1
ssS'years'
p345
(dp346
S''
F1
ssg287
(dp347
S"Re-Financin'"
p348
F1
ssS"won't"
p349
(dp350
S'be'
p351
F1
ssS'signs'
p352
(dp353
S''
F1
ssS'cold'
p354
(dp355
S'marmalade'
p356
F1
ssS'then,'
p357
(dp358
S'Israel'
p359
F1
ssS'adaption'
p360
(dp361
S'will'
p362
F1
ssg74
(dp363
S'I'
F1
ssS'degrees'
p364
(dp365
S'while'
p366
F1
ssS'might'
p367
(dp368
S'paste'
p369
F1
ssg127
(dp370
S'Valerie'
p371
F1
ssS'it,'
p372
(dp373
S"I'll"
p374
F0.5
sS"we've"
p375
F0.5
ssg80
(dp376
S'blanketer'
p377
F0.5
sg345
F0.5
ssS'excardon'
p378
(dp379
g246
F1
ssS'ya'
p380
(dp381
S'on'
p382
F1
ssS'Myrtlebeth'
p383
(dp384
S''
F1
ssS'break'
p385
(dp386
S''
F1
ssg252
(dp387
S''
F0.5
sS'take'
p388
F0.5
ssg52
(dp389
S'I'
F0.5
sS'you'
p390
F0.5
ssS'they'
p391
(dp392
S'lest'
p393
F1
ssS'not'
p394
(dp395
S''
F0.5
sg161
F0.5
ssS'now'
p396
(dp397
S'and'
p398
F0.5
sS''
F0.5
ssS"'bout"
p399
(dp400
S'I'
F1
ssS'name'
p401
(dp402
g372
F0.5
sS'is'
p403
F0.5
ssg29
(dp404
S'hello'
p405
F1
ssg79
(dp406
S'to'
p407
F1
ssg75
(dp408
S'out'
p409
F1
ssS'detect'
p410
(dp411
S'me'
p412
F1
ssS'tents'
p413
(dp414
S'and'
p415
F1
ssS'our'
p416
(dp417
S'handsome'
p418
F1
ssS'really'
p419
(dp420
S'go'
p421
F0.33333333333333331
sS'lower'
p422
F0.33333333333333331
sS'is'
p423
F0.33333333333333331
ssS'Presbyterian'
p424
(dp425
S''
F1
ssS'since'
p426
(dp427
S'you'
p428
F1
ssg31
(dp429
S''
F1
ssS'got'
p430
(dp431
S'fourteen'
p432
F0.33333333333333331
sS'some'
p433
F0.33333333333333331
sg236
F0.33333333333333331
ssg305
(dp434
S''
F1
ssS'dodgers'
p435
(dp436
S''
F1
ssg371
(dp437
S''
F1
ssg32
(dp438
S'will'
p439
F0.5
sS'is'
p440
F0.5
ssg316
(dp441
g225
F1
ssg255
(dp442
S'dog'
p443
F0.5
sS'childrens'
p444
F0.5
ssg317
(dp445
S'canceltation'
p446
F1
ssg432
(dp447
g364
F1
ssS'care'
p448
(dp449
S'to'
p450
F0.5
sS'for'
p451
F0.5
ssS'wadger,'
p452
(dp453
S'but'
p454
F1
ssS'dunno'
p455
(dp456
S''
F1
ssS'could'
p457
(dp458
S'you'
p459
F0.33333333333333331
sS'just'
p460
F0.33333333333333331
sg419
F0.33333333333333331
ssS'identificaption'
p461
(dp462
S''
F1
ssg71
(dp463
S''
F1
ssS'Monteljohn'
p464
(dp465
S''
F1
ssg313
(dp466
g163
F1
ssg10
(dp467
S'were'
p468
F1
ssS'doughnuts'
p469
(dp470
S''
F1
ssS'one'
p471
(dp472
S'of'
p473
F1
ssS'Bathsheba'
p474
(dp475
S''
F1
ssg183
(dp476
g133
F1
ssg109
(dp477
S'any'
p478
F1
ssS"you're"
p479
(dp480
S'all'
p481
F1
ssS'guess'
p482
(dp483
S''
F1
ssg24
(dp484
S''
F0.5
sg357
F0.5
ssS'Kansattica'
p485
(dp486
S''
F1
ssg294
(dp487
S'for'
p488
F1
ssS'that'
p489
(dp490
g91
F1
ssS'nobody'
p491
(dp492
S'taking'
p493
F1
ssS'bankways'
p494
(dp495
S''
F1
ssg266
(dp496
g174
F1
ssS'Beverly'
p497
(dp498
S'clearly'
p499
F1
ssg235
(dp500
g83
F1
ssS'denominator,'
p501
(dp502
S'like'
p503
F1
ssS'Bridget,'
p504
(dp505
S'but'
p506
F1
ssg39
(dp507
g189
F0.5
sS'back'
p508
F0.5
ssg104
(dp509
S'you,'
p510
F1
ssS"Cardgage's"
p511
(dp512
g306
F1
ssg275
(dp513
g308
F1
ssg232
(dp514
S'all'
p515
F0.5
sS'some'
p516
F0.5
ssS'dispenser'
p517
(dp518
S''
F1
ssS'steep'
p519
(dp520
S'some'
p521
F1
ssS'bet'
p522
(dp523
S''
F1
ssg398
(dp524
S'this'
p525
F0.33333333333333331
sS'see'
p526
F0.33333333333333331
sg292
F0.33333333333333331
ssg219
(dp527
g494
F1
ssg188
(dp528
S''
F1
ssS'talking'
p529
(dp530
S'experts'
p531
F1
ssS'buy'
p532
(dp533
S'me'
p534
F0.33333333333333331
sS'it,'
p535
F0.33333333333333331
sS'it'
p536
F0.33333333333333331
ssS'have'
p537
(dp538
S'this'
p539
F0.5
sS'to'
p540
F0.5
ssg478
(dp541
g172
F1
ssg28
(dp542
g426
F1
ssg68
(dp543
g394
F1
ssS'peas,'
p544
(dp545
S'Helvetica'
p546
F1
ssg388
(dp547
S''
F1
ssg105
(dp548
S''
F1
ssS'brootiful,'
p549
(dp550
g204
F1
ssS'vengeance'
p551
(dp552
S''
F1
ssS'why'
p553
(dp554
S''
F1
ssg180
(dp555
S''
F1
ssg153
(dp556
S'his'
p557
F1
ssg443
(dp558
S'for'
p559
F1
ssS'doe'
p560
(dp561
g206
F1
ssg193
(dp562
S'name'
p563
F1
ssS'came'
p564
(dp565
S'to'
p566
F1
ssg546
(dp567
S''
F1
ssS'mandy,'
p568
(dp569
S"it's"
p570
F1
ssg22
(dp571
g261
F1
ssS'Belindas'
p572
(dp573
S''
F1
ssS'should'
p574
(dp575
S'eat'
p576
F1
ssg319
(dp577
S'good'
p578
F1
ssS'hope'
p579
(dp580
S'you'
p581
F1
ssg557
(dp582
S'spectacles'
p583
F1
ssS'hit'
p584
(dp585
g380
F1
ssS'get'
p586
(dp587
S'a'
F0.5
sg77
F0.5
ssS'GPA'
p588
(dp589
S''
F1
ssS"they'd"
p590
(dp591
g532
F1
ssg273
(dp592
S''
F0.5
sS'grabness'
p593
F0.5
ssg19
(dp594
g342
F1
ssS'Dinty'
p595
(dp596
S'Moore'
p597
F1
ssg597
(dp598
S''
F1
ssg70
(dp599
S'will'
p600
F1
ssg107
(dp601
S''
F1
ssg256
(dp602
S'samwich'
p603
F1
ssg257
(dp604
S'I'
F1
ssS'set'
p605
(dp606
S'up'
p607
F1
ssg150
(dp608
g517
F1
ssS'Brethany'
p609
(dp610
S''
F1
ssg341
(dp611
S'me'
p612
F0.33333333333333331
sg491
F0.33333333333333331
sS'if'
p613
F0.33333333333333331
ssg291
(dp614
S'these'
p615
F0.5
sS'all'
p616
F0.5
ssg42
(dp617
S'will'
p618
F1
ssg49
(dp619
S''
F1
ssS'said'
p620
(dp621
g590
F1
ssS'away'
p622
(dp623
S'if'
p624
F1
ssS'state'
p625
(dp626
S'of'
p627
F1
ssg48
(dp628
S'you'
p629
F1
ssS'cut'
p630
(dp631
S'you'
p632
F1
ssg240
(dp633
S'see'
p634
F1
ssS'Tompkins'
p635
(dp636
S''
F1
ssS'Ethel'
p637
(dp638
S''
F1
ssg493
(dp639
S'me'
p640
F1
ssg67
(dp641
S'on'
p642
F1
ssS'those,'
p643
(dp644
S'right'
p645
F1
ssS'whole'
p646
(dp647
S'fambly'
p648
F1
ssg8
(dp649
S'you'
p650
F1
ssg15
(dp651
S'rates,'
p652
F1
ssg17
(dp653
g97
F1
ssS'there,'
p654
(dp655
g572
F1
ssg26
(dp656
g430
F1
ssS'stamp'
p657
(dp658
S''
F1
ssg570
(dp659
S'just'
p660
F1
ssg30
(dp661
S'I'
F1
ssS'mind'
p662
(dp663
S'helping'
p664
F1
ssg271
(dp665
g385
F1
ssS'prices'
p666
(dp667
S''
F1
ssg57
(dp668
S'real'
p669
F1
ssg102
(dp670
S'forward'
p671
F1
ssS'Grendolyn'
p672
(dp673
S''
F1
ssg615
(dp674
g310
F1
ssg362
(dp675
S'be'
p676
F0.5
sS'make'
p677
F0.25
sS'really'
p678
F0.25
ssg366
(dp679
S'on'
p680
F1
ssS'mallvies'
p681
(dp682
S''
F1
ssS'Cole'
p683
(dp684
S'Slaw'
p685
F1
ssS'Miss'
p686
(dp687
g199
F1
ssS'at'
p688
(dp689
g253
F1
ssg403
(dp690
S'a'
F0.14285714285714285
sS'here'
p691
F0.14285714285714285
sg497
F0.14285714285714285
sg329
F0.14285714285714285
sS'not'
p692
F0.14285714285714285
sg683
F0.14285714285714285
sg635
F0.14285714285714285
ssS'them'
p693
(dp694
g620
F1
ssS'ducks'
p695
(dp696
S'in'
p697
F1
ssg531
(dp698
S''
F1
ssS'in'
p699
(dp700
S''
F0.5
sS'the'
p701
F0.5
ssg18
(dp702
S'rally'
p703
F0.25
sg367
F0.25
sg522
F0.25
sg560
F0.25
ssg613
(dp704
S'you'
p705
F1
ssg359
(dp706
S''
F1
ssS'away,'
p707
(dp708
S'I'
F1
ssg677
(dp709
S'a'
F1
ssg499
(dp710
S'my'
p711
F1
ssg35
(dp712
S''
F1
ssg158
(dp713
g686
F1
ssS'I'
(dp714
g201
F0.055555555555555552
sg482
F0.055555555555555552
sg584
F0.055555555555555552
sg166
F0.055555555555555552
sg339
F0.055555555555555552
sg455
F0.1111111111111111
sS'could'
p715
F0.055555555555555552
sS'am'
p716
F0.055555555555555552
sS'was'
p717
F0.055555555555555552
sg574
F0.055555555555555552
sS'sagged'
p718
F0.055555555555555552
sS'can'
p719
F0.055555555555555552
sg537
F0.055555555555555552
sS'got'
p720
F0.055555555555555552
sg519
F0.055555555555555552
sg579
F0.055555555555555552
sS'bo-roach'
p721
F0.055555555555555552
ssg270
(dp722
S'Cressida'
p723
F1
ssg300
(dp724
S''
F1
ssS'action'
p725
(dp726
S''
F1
ssg718
(dp727
S'on'
p728
F1
ssg344
(dp729
S''
F1
ssg422
(dp730
S'your'
p731
F1
ssg685
(dp732
S''
F1
ssg64
(dp733
S'this'
p734
F1
ssg65
(dp735
g349
F0.5
sS'really'
p736
F0.5
ssg117
(dp737
g725
F1
ssS'the'
p738
(dp739
g279
F0.066666666666666666
sS'little'
p740
F0.066666666666666666
sg435
F0.066666666666666666
sg452
F0.066666666666666666
sg194
F0.066666666666666666
sg360
F0.066666666666666666
sg469
F0.066666666666666666
sS'slant'
p741
F0.066666666666666666
sg625
F0.066666666666666666
sg551
F0.066666666666666666
sS'pile'
p742
F0.066666666666666666
sg302
F0.066666666666666666
sg186
F0.066666666666666666
sS'store,'
p743
F0.066666666666666666
sg681
F0.066666666666666666
ssg76
(dp744
S'you'
p745
F1
ssS'lest'
p746
(dp747
S''
F0.5
sg707
F0.5
ssg3
(dp748
g125
F1
ssg7
(dp749
S'you,'
p750
F0.66666666666666663
sS'yo,'
p751
F0.33333333333333331
ssg460
(dp752
S'a'
F0.33333333333333331
sS'on'
p753
F0.33333333333333331
sg154
F0.33333333333333331
ssS'going,'
p754
(dp755
g637
F1
ssS'percent'
p756
(dp757
g352
F1
ssg11
(dp758
g94
F1
ssS'thanks'
p759
(dp760
S'for'
p761
F1
ssg21
(dp762
g197
F0.20000000000000001
sS'my'
p763
F0.40000000000000002
sS'thanks'
p764
F0.20000000000000001
sg378
F0.20000000000000001
ssg583
(dp765
S''
F1
ssg375
(dp766
S'got'
p767
F1
ssg56
(dp768
S''
F1
ssS"ma'am"
p769
(dp770
S''
F1
ssg742
(dp771
S''
F1
ssg669
(dp772
g549
F1
ssg46
(dp773
S''
F1
ssg47
(dp774
g243
F1
ssS"ma'am,"
p775
(dp776
g220
F0.5
sS'but'
p777
F0.5
ssS'buychase'
p778
(dp779
S'me'
p780
F1
ssg168
(dp781
S''
F0.5
sg553
F0.5
ssg121
(dp782
g769
F0.33333333333333331
sg504
F0.33333333333333331
sg775
F0.33333333333333331
ssg743
(dp783
S'can'
p784
F1
ssg648
(dp785
S''
F1
ssg503
(dp786
g151
F0.5
sg643
F0.5
ssS'Mackerel'
p787
(dp788
S''
F1
ssg41
(dp789
S'you'
p790
F1
ssS"grampson's"
p791
(dp792
g588
F1
ssg4
(dp793
g609
F0.5
sg672
F0.5
ssS'wintergreen'
p794
(dp795
S'gather'
p796
F1
ssS'old'
p797
(dp798
g501
F0.25
sS'Soderbergh'
p799
F0.25
sg259
F0.25
sg794
F0.25
ssg446
(dp800
S'with'
p801
F1
ssg433
(dp802
S'important'
p803
F0.25
sg695
F0.25
sg461
F0.25
sg413
F0.25
ssg508
(dp804
S'when'
p805
F1
ssg348
(dp806
g326
F1
ssg20
(dp807
g464
F1
ssg318
(dp808
S'of'
p809
F1
ssg451
(dp810
S'a'
F0.30769230769230771
sS''
F0.076923076923076927
sS'all'
p811
F0.076923076923076927
sS'the'
p812
F0.076923076923076927
sg122
F0.076923076923076927
sS'Senor'
p813
F0.076923076923076927
sS'you'
p814
F0.076923076923076927
sS'my'
p815
F0.076923076923076927
sS'your'
p816
F0.076923076923076927
sg233
F0.076923076923076927
ssg325
(dp817
g693
F1
ssg33
(dp818
g654
F1
ssg37
(dp819
S'the'
p820
F1
ssg100
(dp821
g754
F0.25
sS'on'
p822
F0.25
sS'complete'
p823
F0.25
sg177
F0.25
ssg45
(dp824
g688
F1
ssg85
(dp825
S''
F1
ssS'peas'
p826
(dp827
S'to'
p828
F1
ssg369
(dp829
g622
F1
ssS'by'
p830
(dp831
S''
F1
ssS'on'
p832
(dp833
S'down'
p834
F0.125
sg738
F0.375
sS'my'
p835
F0.25
sS'your'
p836
F0.125
sS'for'
p837
F0.125
ssg50
(dp838
S''
F1
ssg62
(dp839
g227
F1
ssg809
(dp840
g416
F0.20000000000000001
sg544
F0.20000000000000001
sg826
F0.20000000000000001
sg144
F0.20000000000000001
sg485
F0.20000000000000001
ssg69
(dp841
S'you'
p842
F1
ssg106
(dp843
S'to'
p844
F0.5
sg699
F0.5
ssg6
(dp845
S''
F1
ssg444
(dp846
S'know'
p847
F1
ssg9
(dp848
g759
F0.5
sS'probalo'
p849
F0.5
ssg191
(dp850
S'your'
p851
F0.5
sS'for'
p852
F0.5
ssg645
(dp853
S''
F0.5
sS'here'
p854
F0.5
ssg851
(dp855
S''
F0.25
sg746
F0.25
sg646
F0.25
sg791
F0.25
ssg723
(dp856
S''
F1
ssS'Pooey'
p857
(dp858
S''
F1
ssg25
(dp859
S''
F1
ssg124
(dp860
g666
F1
ssg671
(dp861
S'to'
p862
F1
ssg717
(dp863
S'just'
p864
F1
ssg377
(dp865
S''
F1
ssg43
(dp866
g605
F1
ssg510
(dp867
S"ma'am"
p868
F0.25
sg383
F0.25
sS'Hot'
p869
F0.25
sS"ma'am,"
p870
F0.25
ssg823
(dp871
S''
F1
ssg281
(dp872
g657
F1
ssg777
(dp873
g457
F0.33333333333333331
sS'can'
p874
F0.33333333333333331
sg391
F0.33333333333333331
ssg751
(dp875
g424
F1
ssg801
(dp876
S'the'
p877
F0.5
sg471
F0.5
ssg576
(dp878
S'a'
F1
ssg418
(dp879
g529
F1
ssg374
(dp880
g630
F1
ssg799
(dp881
S'gather'
p882
F1
ssg721
(dp883
S'it'
p884
F1
ssg171
(dp885
S''
F0.40000000000000002
sg832
F0.20000000000000001
sS'the'
p886
F0.20000000000000001
sS'some'
p887
F0.20000000000000001
ssg356
(dp888
S''
F1
ssg849
(dp889
S''
F1
ssg716
(dp890
S''
F1
ssg338
(dp891
g797
F1
ssg12
(dp892
g399
F1
ssg869
(dp893
g857
F1
ssg14
(dp894
S''
F1
ssg140
(dp895
g489
F1
ssg16
(dp896
g241
F1
ssg274
(dp897
S''
F1
ssg229
(dp898
g568
F1
ssg805
(dp899
g479
F1
ssg703
(dp900
g148
F1
ssg129
(dp901
g511
F0.33333333333333331
sg298
F0.66666666666666663
ssg459
(dp902
S''
F0.047619047619047616
sg410
F0.047619047619047616
sg334
F0.19047619047619047
sg586
F0.095238095238095233
sS'could'
p903
F0.047619047619047616
sg662
F0.047619047619047616
sg778
F0.047619047619047616
sS'can'
p904
F0.047619047619047616
sS'have'
p905
F0.047619047619047616
sS'in'
p906
F0.047619047619047616
sS'go'
p907
F0.047619047619047616
sg595
F0.047619047619047616
sg448
F0.095238095238095233
sg830
F0.047619047619047616
sg564
F0.047619047619047616
sg401
F0.047619047619047616
ssg147
(dp908
S'Senor'
p909
F0.5
sS'for'
p910
F0.5
ssg320
(dp911
g354
F1
ssg741
(dp912
S''
F1
ssg664
(dp913
S'an'
p914
F1
ssg803
(dp915
g321
F1
ssg245
(dp916
S''
F1
ssg53
(dp917
g396
F1
ssg603
(dp918
S'is'
p919
F1
ssg276
(dp920
g474
F1
ssg314
(dp921
g217
F1
ssg61
(dp922
g141
F1
ssg315
(dp923
g787
F1
ssg44
(dp924
S'if'
p925
F1
ssg652
(dp926
g756
F1
ssg405
(dp927
S'to'
p928
F1
ss.